target datalayout = "e-m:e-p270:32:32-p271:32:32-p272:64:64-i64:64-i128:128-f80:128-n8:16:32:64-S128"
target triple = "x86_64-pc-linux-gnu"

%"class.pxrInternal_v0_24__pxrReserved__::TfType" = type { ptr }
%"class.pxrInternal_v0_24__pxrReserved__::TfRefPtr" = type { ptr }
%"class.pxrInternal_v0_24__pxrReserved__::TfWeakPtr.36" = type { ptr, %"class.pxrInternal_v0_24__pxrReserved__::TfRefPtr" }
%"class.pxrInternal_v0_24__pxrReserved__::TfWeakBase" = type { %"struct.std::atomic.7" }
%"struct.std::atomic.7" = type { %"struct.std::__atomic_base.8" }
%"struct.std::__atomic_base.8" = type { ptr }
%"class.pxrInternal_v0_24__pxrReserved__::TfAnyWeakPtr" = type { %"struct.pxrInternal_v0_24__pxrReserved__::TfAnyWeakPtr::_Data" }
%"struct.pxrInternal_v0_24__pxrReserved__::TfAnyWeakPtr::_Data" = type { [4 x ptr] }
%"class.pxrInternal_v0_24__pxrReserved__::TfNotice::_Deliverer" = type { %"class.pxrInternal_v0_24__pxrReserved__::TfNotice::_StandardDeliverer.base", %"class.pxrInternal_v0_24__pxrReserved__::TfWeakPtr.36", %"class.pxrInternal_v0_24__pxrReserved__::TfAnyWeakPtr", { i64, i64 } }
%"class.pxrInternal_v0_24__pxrReserved__::TfNotice::_StandardDeliverer.base" = type { %"class.pxrInternal_v0_24__pxrReserved__::TfNotice::_DelivererBase.base" }
%"class.pxrInternal_v0_24__pxrReserved__::TfNotice::_DelivererBase.base" = type <{ ptr, %"class.pxrInternal_v0_24__pxrReserved__::TfWeakBase", ptr, %"struct.std::_List_iterator", i8, i8 }>
%"struct.std::_List_iterator" = type { ptr }

; Function Attrs: mustprogress nounwind uwtable
define internal noundef ptr @_ZNK32pxrInternal_v0_24__pxrReserved__8TfNotice18_StandardDelivererINS0_10_DelivererINS_9TfWeakPtrINS_12_GLOBAL__N_117_BehaviorRegistryEEENS_12TfAnyWeakPtrEMS5_FvRKNS_10PlugNotice18DidRegisterPluginsEES9_EEE9AsDerivedEv(ptr noundef nonnull align 8 dereferenceable(34) %0) #0 align 2 {
  %2 = alloca ptr, align 8
  store ptr %0, ptr %2, align 8
  %3 = load ptr, ptr %2, align 8
  ret ptr %3
}

; Function Attrs: mustprogress uwtable
define internal noundef zeroext i1 @_ZNK32pxrInternal_v0_24__pxrReserved__8TfNotice18_StandardDelivererINS0_10_DelivererINS_9TfWeakPtrINS_12_GLOBAL__N_117_BehaviorRegistryEEENS_12TfAnyWeakPtrEMS5_FvRKNS_10PlugNotice18DidRegisterPluginsEES9_EEE8DeliversERKNS_6TfTypeEPKNS_10TfWeakBaseE(ptr noundef nonnull align 8 dereferenceable(34) %0, ptr noundef nonnull align 8 dereferenceable(8) %1, ptr noundef %2) unnamed_addr #2 align 2 {
  %4 = alloca ptr, align 8
  %5 = alloca ptr, align 8
  %6 = alloca ptr, align 8
  %7 = alloca ptr, align 8
  %8 = alloca %"class.pxrInternal_v0_24__pxrReserved__::TfType", align 8
  store ptr %0, ptr %4, align 8
  store ptr %1, ptr %5, align 8
  store ptr %2, ptr %6, align 8
  %9 = load ptr, ptr %4, align 8
  %10 = call noundef ptr @_ZNK32pxrInternal_v0_24__pxrReserved__8TfNotice18_StandardDelivererINS0_10_DelivererINS_9TfWeakPtrINS_12_GLOBAL__N_117_BehaviorRegistryEEENS_12TfAnyWeakPtrEMS5_FvRKNS_10PlugNotice18DidRegisterPluginsEES9_EEE9AsDerivedEv(ptr noundef nonnull align 8 dereferenceable(34) %9)
  store ptr %10, ptr %7, align 8
  %11 = load ptr, ptr %5, align 8
  %12 = load ptr, ptr %9, align 8
  %13 = getelementptr inbounds ptr, ptr %12, i64 3
  %14 = load ptr, ptr %13, align 8
  %15 = call ptr %14(ptr noundef nonnull align 8 dereferenceable(34) %9)
  %16 = getelementptr inbounds nuw %"class.pxrInternal_v0_24__pxrReserved__::TfType", ptr %8, i32 0, i32 0
  store ptr %15, ptr %16, align 8
  %17 = getelementptr inbounds nuw %"class.pxrInternal_v0_24__pxrReserved__::TfType", ptr %8, i32 0, i32 0
  %18 = load ptr, ptr %17, align 8
  %19 = call noundef zeroext i1 @_ZNK32pxrInternal_v0_24__pxrReserved__6TfType3IsAES0_(ptr noundef nonnull align 8 dereferenceable(8) %11, ptr %18)
  br i1 %19, label %20, label %33

20:                                               ; preds = %3
  %21 = load ptr, ptr %7, align 8
  %22 = getelementptr inbounds nuw %"class.pxrInternal_v0_24__pxrReserved__::TfNotice::_Deliverer", ptr %21, i32 0, i32 2
  %23 = call noundef zeroext i1 @_ZNK32pxrInternal_v0_24__pxrReserved__12TfAnyWeakPtr9IsInvalidEv(ptr noundef nonnull align 8 dereferenceable(32) %22)
  br i1 %23, label %33, label %24

24:                                               ; preds = %20
  %25 = load ptr, ptr %6, align 8
  %26 = icmp ne ptr %25, null
  br i1 %26, label %27, label %33

27:                                               ; preds = %24
  %28 = load ptr, ptr %7, align 8
  %29 = getelementptr inbounds nuw %"class.pxrInternal_v0_24__pxrReserved__::TfNotice::_Deliverer", ptr %28, i32 0, i32 2
  %30 = call noundef ptr @_ZNK32pxrInternal_v0_24__pxrReserved__12TfAnyWeakPtr11GetWeakBaseEv(ptr noundef nonnull align 8 dereferenceable(32) %29)
  %31 = load ptr, ptr %6, align 8
  %32 = icmp eq ptr %30, %31
  br label %33

33:                                               ; preds = %27, %24, %20, %3
  %34 = phi i1 [ false, %24 ], [ false, %20 ], [ false, %3 ], [ %32, %27 ]
  ret i1 %34
}