; Function Attrs: mustprogress uwtable
define internal noundef zeroext i1 @_ZNK32pxrInternal_v0_24__pxrReserved__8TfNotice18_StandardDelivererINS0_10_DelivererINS_9TfWeakPtrINS_12_GLOBAL__N_117_BehaviorRegistryEEENS_12TfAnyWeakPtrEMS5_FvRKNS_10PlugNotice18DidRegisterPluginsEES9_EEE8DeliversERKNS_6TfTypeEPKNS_10TfWeakBaseE(ptr noundef nonnull align 8 dereferenceable(34) %0, ptr noundef nonnull align 8 dereferenceable(8) %1, ptr noundef readnone %2) unnamed_addr #3 align 2 {
  %4 = load ptr, ptr %0, align 8
  %5 = getelementptr inbounds i8, ptr %4, i64 24
  %6 = load ptr, ptr %5, align 8
  %7 = tail call ptr %6(ptr noundef nonnull align 8 dereferenceable(34) %0)
  %8 = tail call noundef zeroext i1 @_ZNK32pxrInternal_v0_24__pxrReserved__6TfType3IsAES0_(ptr noundef nonnull align 8 dereferenceable(8) %1, ptr %7)
  br i1 %8, label %9, label %16

9:                                                ; preds = %3
  %10 = getelementptr inbounds nuw i8, ptr %0, i64 56
  %11 = tail call noundef zeroext i1 @_ZNK32pxrInternal_v0_24__pxrReserved__12TfAnyWeakPtr9IsInvalidEv(ptr noundef nonnull align 8 dereferenceable(32) %10)
  %12 = icmp eq ptr %2, null
  %or.cond.not = or i1 %12, %11
  br i1 %or.cond.not, label %16, label %13

13:                                               ; preds = %9
  %14 = tail call noundef ptr @_ZNK32pxrInternal_v0_24__pxrReserved__12TfAnyWeakPtr11GetWeakBaseEv(ptr noundef nonnull align 8 dereferenceable(32) %10)
  %15 = icmp eq ptr %14, %2
  br label %16

16:                                               ; preds = %13, %9, %3
  %17 = phi i1 [ false, %9 ], [ false, %3 ], [ %15, %13 ]
  ret i1 %17
}